; Function Attrs: mustprogress uwtable
define dso_local void @_ZN19cmUVJobServerClient4Impl12ReleaseTokenEv(ptr noundef nonnull align 8 dereferenceable(104) %0) local_unnamed_addr #3 align 2 {
  %2 = getelementptr inbounds i8, ptr %0, i64 96
  %3 = load i32, ptr %2, align 8
  %4 = add i32 %3, -1
  store i32 %4, ptr %2, align 8
  %5 = icmp eq i32 %4, 0
  br i1 %5, label %6, label %18

6:                                                ; preds = %1
  %7 = getelementptr inbounds i8, ptr %0, i64 100
  %8 = load i32, ptr %7, align 4
  %.not.i = icmp eq i32 %8, 0
  br i1 %.not.i, label %_ZN19cmUVJobServerClient4Impl20ReleaseImplicitTokenEv.exit, label %9

9:                                                ; preds = %6
  %10 = add i32 %8, -1
  store i32 %10, ptr %7, align 4
  %11 = icmp eq i32 %10, 0
  br i1 %11, label %12, label %_ZN19cmUVJobServerClient4Impl19DecrementNeedTokensEv.exit.i

12:                                               ; preds = %9
  %13 = load ptr, ptr %0, align 8
  %14 = getelementptr inbounds i8, ptr %13, i64 32
  %15 = load ptr, ptr %14, align 8
  tail call void %15(ptr noundef nonnull align 8 dereferenceable(104) %0)
  br label %_ZN19cmUVJobServerClient4Impl19DecrementNeedTokensEv.exit.i

_ZN19cmUVJobServerClient4Impl19DecrementNeedTokensEv.exit.i: ; preds = %12, %9
  %16 = getelementptr inbounds i8, ptr %0, i64 16
  %17 = tail call noundef i32 @_ZN2cm11uv_idle_ptr5startEPFvP9uv_idle_sE(ptr noundef nonnull align 8 dereferenceable(16) %16, ptr noundef nonnull @"_ZZN19cmUVJobServerClient4Impl20RequestImplicitTokenEvEN3$_08__invokeEP9uv_idle_s")
  br label %_ZN19cmUVJobServerClient4Impl20ReleaseImplicitTokenEv.exit

18:                                               ; preds = %1
  %19 = load ptr, ptr %0, align 8
  %20 = getelementptr inbounds i8, ptr %19, i64 16
  %21 = load ptr, ptr %20, align 8
  tail call void %21(ptr noundef nonnull align 8 dereferenceable(104) %0)
  br label %_ZN19cmUVJobServerClient4Impl20ReleaseImplicitTokenEv.exit

_ZN19cmUVJobServerClient4Impl20ReleaseImplicitTokenEv.exit: ; preds = %_ZN19cmUVJobServerClient4Impl19DecrementNeedTokensEv.exit.i, %6, %18
  ret void
}